target datalayout = "e-m:e-p270:32:32-p271:32:32-p272:64:64-i64:64-i128:128-f80:128-n8:16:32:64-S128"
target triple = "x86_64-pc-linux-gnu"

%struct.string = type { ptr, ptr, i32 }

@empty_string = internal global [1 x i8] zeroinitializer, align 1
@.str.325 = private unnamed_addr constant [61 x i8] c"Phishcheck: Unable to allocate memory for string_assign_dup\0A\00", align 1

; Function Attrs: nounwind uwtable
define internal void @string_init_c(ptr noundef %0, ptr noundef %1) #0 {
  %3 = alloca ptr, align 8
  %4 = alloca ptr, align 8
  store ptr %0, ptr %3, align 8
  store ptr %1, ptr %4, align 8
  %5 = load ptr, ptr %4, align 8
  %6 = icmp ne ptr %5, null
  %7 = select i1 %6, i32 1, i32 0
  %8 = load ptr, ptr %3, align 8
  %9 = getelementptr inbounds %struct.string, ptr %8, i32 0, i32 2
  store i32 %7, ptr %9, align 8
  %10 = load ptr, ptr %4, align 8
  %11 = icmp ne ptr %10, null
  br i1 %11, label %12, label %14

12:                                               ; preds = %2
  %13 = load ptr, ptr %4, align 8
  br label %15

14:                                               ; preds = %2
  br label %15

15:                                               ; preds = %14, %12
  %16 = phi ptr [ %13, %12 ], [ @empty_string, %14 ]
  %17 = load ptr, ptr %3, align 8
  %18 = getelementptr inbounds %struct.string, ptr %17, i32 0, i32 1
  store ptr %16, ptr %18, align 8
  %19 = load ptr, ptr %3, align 8
  %20 = getelementptr inbounds %struct.string, ptr %19, i32 0, i32 0
  store ptr null, ptr %20, align 8
  ret void
}

; Function Attrs: nounwind uwtable
define internal void @string_free(ptr noundef %0) #0 {
  %2 = alloca ptr, align 8
  store ptr %0, ptr %2, align 8
  br label %3

3:                                                ; preds = %33, %1
  %4 = load ptr, ptr %2, align 8
  %5 = getelementptr inbounds %struct.string, ptr %4, i32 0, i32 2
  %6 = load i32, ptr %5, align 8
  %7 = add nsw i32 %6, -1
  store i32 %7, ptr %5, align 8
  %8 = load ptr, ptr %2, align 8
  %9 = getelementptr inbounds %struct.string, ptr %8, i32 0, i32 2
  %10 = load i32, ptr %9, align 8
  %11 = icmp ne i32 %10, 0
  br i1 %11, label %32, label %12

12:                                               ; preds = %3
  %13 = load ptr, ptr %2, align 8
  %14 = getelementptr inbounds %struct.string, ptr %13, i32 0, i32 0
  %15 = load ptr, ptr %14, align 8
  %16 = icmp ne ptr %15, null
  br i1 %16, label %17, label %21

17:                                               ; preds = %12
  %18 = load ptr, ptr %2, align 8
  %19 = getelementptr inbounds %struct.string, ptr %18, i32 0, i32 0
  %20 = load ptr, ptr %19, align 8
  store ptr %20, ptr %2, align 8
  br label %31

21:                                               ; preds = %12
  %22 = load ptr, ptr %2, align 8
  %23 = getelementptr inbounds %struct.string, ptr %22, i32 0, i32 1
  %24 = load ptr, ptr %23, align 8
  %25 = icmp ne ptr %24, null
  br i1 %25, label %26, label %30

26:                                               ; preds = %21
  %27 = load ptr, ptr %2, align 8
  %28 = getelementptr inbounds %struct.string, ptr %27, i32 0, i32 1
  %29 = load ptr, ptr %28, align 8
  call void @free(ptr noundef %29) #9
  br label %30

30:                                               ; preds = %26, %21
  br label %34

31:                                               ; preds = %17
  br label %33

32:                                               ; preds = %3
  br label %34

33:                                               ; preds = %31
  br label %3

34:                                               ; preds = %32, %30
  ret void
}

; Function Attrs: nounwind uwtable
define internal i32 @string_assign_dup(ptr noundef %0, ptr noundef %1, ptr noundef %2) #0 {
  %4 = alloca i32, align 4
  %5 = alloca ptr, align 8
  %6 = alloca ptr, align 8
  %7 = alloca ptr, align 8
  %8 = alloca ptr, align 8
  store ptr %0, ptr %5, align 8
  store ptr %1, ptr %6, align 8
  store ptr %2, ptr %7, align 8
  %9 = load ptr, ptr %7, align 8
  %10 = load ptr, ptr %6, align 8
  %11 = ptrtoint ptr %9 to i64
  %12 = ptrtoint ptr %10 to i64
  %13 = sub i64 %11, %12
  %14 = add nsw i64 %13, 1
  %15 = call ptr @cli_max_malloc(i64 noundef %14)
  store ptr %15, ptr %8, align 8
  %16 = load ptr, ptr %8, align 8
  %17 = icmp ne ptr %16, null
  br i1 %17, label %19, label %18

18:                                               ; preds = %3
  call void (ptr, ...) @cli_errmsg(ptr noundef @.str.325)
  store i32 20, ptr %4, align 4
  br label %38

19:                                               ; preds = %3
  %20 = load ptr, ptr %8, align 8
  %21 = load ptr, ptr %6, align 8
  %22 = load ptr, ptr %7, align 8
  %23 = load ptr, ptr %6, align 8
  %24 = ptrtoint ptr %22 to i64
  %25 = ptrtoint ptr %23 to i64
  %26 = sub i64 %24, %25
  %27 = call ptr @strncpy(ptr noundef %20, ptr noundef %21, i64 noundef %26) #9
  %28 = load ptr, ptr %8, align 8
  %29 = load ptr, ptr %7, align 8
  %30 = load ptr, ptr %6, align 8
  %31 = ptrtoint ptr %29 to i64
  %32 = ptrtoint ptr %30 to i64
  %33 = sub i64 %31, %32
  %34 = getelementptr inbounds i8, ptr %28, i64 %33
  store i8 0, ptr %34, align 1
  %35 = load ptr, ptr %5, align 8
  call void @string_free(ptr noundef %35)
  %36 = load ptr, ptr %5, align 8
  %37 = load ptr, ptr %8, align 8
  call void @string_init_c(ptr noundef %36, ptr noundef %37)
  store i32 0, ptr %4, align 4
  br label %38

38:                                               ; preds = %19, %18
  %39 = load i32, ptr %4, align 4
  ret i32 %39
}