; Function Attrs: nounwind uwtable
define internal fastcc noundef i32 @string_assign_dup(ptr nocapture noundef %0, ptr noundef %1, ptr noundef %2) unnamed_addr #0 {
  %4 = ptrtoint ptr %2 to i64
  %5 = ptrtoint ptr %1 to i64
  %6 = sub i64 %4, %5
  %7 = add nsw i64 %6, 1
  %8 = tail call ptr @cli_max_malloc(i64 noundef %7) #18
  %.not = icmp eq ptr %8, null
  br i1 %.not, label %9, label %10

9:                                                ; preds = %3
  tail call void (ptr, ...) @cli_errmsg(ptr noundef nonnull @.str.325) #18
  br label %25

10:                                               ; preds = %3
  %11 = tail call ptr @strncpy(ptr noundef nonnull %8, ptr noundef %1, i64 noundef %6) #18
  %12 = getelementptr inbounds i8, ptr %8, i64 %6
  store i8 0, ptr %12, align 1
  br label %13

13:                                               ; preds = %17, %10
  %.0.i = phi ptr [ %0, %10 ], [ %18, %17 ]
  %14 = getelementptr inbounds i8, ptr %.0.i, i64 16
  %15 = load i32, ptr %14, align 8
  %16 = add nsw i32 %15, -1
  store i32 %16, ptr %14, align 8
  %.not.i = icmp eq i32 %16, 0
  br i1 %.not.i, label %17, label %string_free.exit

17:                                               ; preds = %13
  %18 = load ptr, ptr %.0.i, align 8
  %.not8.i = icmp eq ptr %18, null
  br i1 %.not8.i, label %19, label %13

19:                                               ; preds = %17
  %20 = getelementptr inbounds i8, ptr %.0.i, i64 8
  %21 = load ptr, ptr %20, align 8
  %.not9.i = icmp eq ptr %21, null
  br i1 %.not9.i, label %string_free.exit, label %22

22:                                               ; preds = %19
  tail call void @free(ptr noundef nonnull %21) #18
  br label %string_free.exit

string_free.exit:                                 ; preds = %13, %19, %22
  %23 = getelementptr inbounds i8, ptr %0, i64 16
  store i32 1, ptr %23, align 8
  %24 = getelementptr inbounds i8, ptr %0, i64 8
  store ptr %8, ptr %24, align 8
  store ptr null, ptr %0, align 8
  br label %25

25:                                               ; preds = %string_free.exit, %9
  %.0 = phi i32 [ 0, %string_free.exit ], [ 20, %9 ]
  ret i32 %.0
}